target datalayout = "e-m:e-p270:32:32-p271:32:32-p272:64:64-i64:64-i128:128-f80:128-n8:16:32:64-S128"
target triple = "x86_64-pc-linux-gnu"

; Function Attrs: nounwind uwtable
define hidden ptr @SDL_bsearch_r_REAL(ptr noundef %0, ptr noundef %1, i64 noundef %2, i64 noundef %3, ptr noundef %4, ptr noundef %5) #0 {
  %7 = alloca ptr, align 8
  %8 = alloca ptr, align 8
  %9 = alloca ptr, align 8
  %10 = alloca i64, align 8
  %11 = alloca i64, align 8
  %12 = alloca ptr, align 8
  %13 = alloca ptr, align 8
  %14 = alloca ptr, align 8
  %15 = alloca i64, align 8
  %16 = alloca i32, align 4
  %17 = alloca i32, align 4
  store ptr %0, ptr %8, align 8
  store ptr %1, ptr %9, align 8
  store i64 %2, ptr %10, align 8
  store i64 %3, ptr %11, align 8
  store ptr %4, ptr %12, align 8
  store ptr %5, ptr %13, align 8
  call void @llvm.lifetime.start.p0(i64 8, ptr %14) #4
  call void @llvm.lifetime.start.p0(i64 8, ptr %15) #4
  call void @llvm.lifetime.start.p0(i64 4, ptr %16) #4
  br label %18

18:                                               ; preds = %52, %6
  %19 = load i64, ptr %10, align 8
  %20 = icmp ne i64 %19, 0
  br i1 %20, label %21, label %53

21:                                               ; preds = %18
  %22 = load i64, ptr %10, align 8
  %23 = urem i64 %22, 2
  store i64 %23, ptr %15, align 8
  %24 = load i64, ptr %10, align 8
  %25 = udiv i64 %24, 2
  store i64 %25, ptr %10, align 8
  %26 = load ptr, ptr %9, align 8
  %27 = load i64, ptr %10, align 8
  %28 = load i64, ptr %11, align 8
  %29 = mul i64 %27, %28
  %30 = getelementptr inbounds nuw i8, ptr %26, i64 %29
  store ptr %30, ptr %14, align 8
  %31 = load ptr, ptr %12, align 8
  %32 = load ptr, ptr %13, align 8
  %33 = load ptr, ptr %8, align 8
  %34 = load ptr, ptr %14, align 8
  %35 = call i32 %31(ptr noundef %32, ptr noundef %33, ptr noundef %34)
  store i32 %35, ptr %16, align 4
  %36 = load i32, ptr %16, align 4
  %37 = icmp sgt i32 %36, 0
  br i1 %37, label %38, label %46

38:                                               ; preds = %21
  %39 = load ptr, ptr %14, align 8
  %40 = load i64, ptr %11, align 8
  %41 = getelementptr inbounds nuw i8, ptr %39, i64 %40
  store ptr %41, ptr %9, align 8
  %42 = load i64, ptr %15, align 8
  %43 = sub i64 1, %42
  %44 = load i64, ptr %10, align 8
  %45 = sub i64 %44, %43
  store i64 %45, ptr %10, align 8
  br label %52

46:                                               ; preds = %21
  %47 = load i32, ptr %16, align 4
  %48 = icmp eq i32 %47, 0
  br i1 %48, label %49, label %51

49:                                               ; preds = %46
  %50 = load ptr, ptr %14, align 8
  store ptr %50, ptr %7, align 8
  store i32 1, ptr %17, align 4
  br label %54

51:                                               ; preds = %46
  br label %52

52:                                               ; preds = %51, %38
  br label %18, !llvm.loop !36

53:                                               ; preds = %18
  store ptr null, ptr %7, align 8
  store i32 1, ptr %17, align 4
  br label %54

54:                                               ; preds = %53, %49
  call void @llvm.lifetime.end.p0(i64 4, ptr %16) #4
  call void @llvm.lifetime.end.p0(i64 8, ptr %15) #4
  call void @llvm.lifetime.end.p0(i64 8, ptr %14) #4
  %55 = load ptr, ptr %7, align 8
  ret ptr %55
}