; Function Attrs: nounwind uwtable
define hidden noundef ptr @SDL_bsearch_r_REAL(ptr noundef %0, ptr noundef %1, i64 noundef %2, i64 noundef %3, ptr noundef readonly captures(none) %4, ptr noundef %5) local_unnamed_addr #0 {
  %.not21 = icmp eq i64 %2, 0
  br i1 %.not21, label %._crit_edge, label %.lr.ph

.lr.ph:                                           ; preds = %6, %19
  %.01723 = phi ptr [ %.1, %19 ], [ %1, %6 ]
  %.01822 = phi i64 [ %.119, %19 ], [ %2, %6 ]
  %7 = lshr i64 %.01822, 1
  %8 = mul i64 %7, %3
  %9 = getelementptr inbounds nuw i8, ptr %.01723, i64 %8
  %10 = tail call i32 %4(ptr noundef %5, ptr noundef %0, ptr noundef %9) #5
  %11 = icmp sgt i32 %10, 0
  br i1 %11, label %12, label %17

12:                                               ; preds = %.lr.ph
  %13 = and i64 %.01822, 1
  %14 = getelementptr inbounds nuw i8, ptr %9, i64 %3
  %15 = xor i64 %13, 1
  %16 = sub nsw i64 %7, %15
  br label %19

17:                                               ; preds = %.lr.ph
  %18 = icmp eq i32 %10, 0
  br i1 %18, label %._crit_edge, label %19

19:                                               ; preds = %17, %12
  %.119 = phi i64 [ %16, %12 ], [ %7, %17 ]
  %.1 = phi ptr [ %14, %12 ], [ %.01723, %17 ]
  %.not = icmp eq i64 %.119, 0
  br i1 %.not, label %._crit_edge, label %.lr.ph, !llvm.loop !36

._crit_edge:                                      ; preds = %17, %19, %6
  %.0 = phi ptr [ null, %6 ], [ null, %19 ], [ %9, %17 ]
  ret ptr %.0
}